; Function Attrs: nounwind uwtable
define ptr @l_Lean_activateScoped___rarg(ptr noundef %0, ptr noundef %1, ptr noundef %2, ptr noundef %3) #2 {
  %5 = getelementptr inbounds nuw i8, ptr %0, i64 16
  %6 = load ptr, ptr %5, align 8, !tbaa !9
  %7 = ptrtoint ptr %6 to i64
  %8 = and i64 %7, 1
  %.not = icmp eq i64 %8, 0
  br i1 %.not, label %9, label %lean_inc.exit17

9:                                                ; preds = %4
  %.val.i = load i32, ptr %6, align 4, !tbaa !4
  %10 = icmp sgt i32 %.val.i, 0
  br i1 %10, label %11, label %13, !prof !11

11:                                               ; preds = %9
  %12 = add nuw i32 %.val.i, 1
  store i32 %12, ptr %6, align 4, !tbaa !4
  br label %17

13:                                               ; preds = %9
  %.not.i = icmp eq i32 %.val.i, 0
  br i1 %.not.i, label %17, label %14

14:                                               ; preds = %13
  tail call void @lean_inc_ref_cold(ptr noundef nonnull %6) #7
  br label %17

lean_inc.exit17:                                  ; preds = %4
  %15 = load ptr, ptr @l_Lean_pushScope___rarg___closed__1, align 8, !tbaa !9
  %16 = tail call ptr @lean_apply_2(ptr noundef %2, ptr noundef nonnull inttoptr (i64 1 to ptr), ptr noundef %15) #7
  br label %lean_inc.exit

17:                                               ; preds = %14, %13, %11
  %18 = load ptr, ptr @l_Lean_pushScope___rarg___closed__1, align 8, !tbaa !9
  %19 = tail call ptr @lean_apply_2(ptr noundef %2, ptr noundef nonnull inttoptr (i64 1 to ptr), ptr noundef %18) #7
  %.val.i18 = load i32, ptr %6, align 4, !tbaa !4
  %20 = icmp sgt i32 %.val.i18, 0
  br i1 %20, label %21, label %23, !prof !11

21:                                               ; preds = %17
  %22 = add nuw i32 %.val.i18, 1
  store i32 %22, ptr %6, align 4, !tbaa !4
  br label %lean_inc.exit

23:                                               ; preds = %17
  %.not.i19 = icmp eq i32 %.val.i18, 0
  br i1 %.not.i19, label %lean_inc.exit, label %24

24:                                               ; preds = %23
  tail call void @lean_inc_ref_cold(ptr noundef nonnull %6) #7
  br label %lean_inc.exit

lean_inc.exit:                                    ; preds = %24, %23, %21, %lean_inc.exit17
  %25 = phi ptr [ %16, %lean_inc.exit17 ], [ %19, %21 ], [ %19, %23 ], [ %19, %24 ]
  tail call void @lean_inc_heartbeat() #7
  %26 = tail call noalias ptr @mi_malloc_small(i64 noundef 56) #7
  %27 = icmp eq ptr %26, null
  br i1 %27, label %28, label %lean_alloc_closure.exit

28:                                               ; preds = %lean_inc.exit
  tail call void @lean_internal_panic_out_of_memory() #8
  unreachable

lean_alloc_closure.exit:                          ; preds = %lean_inc.exit
  %29 = getelementptr inbounds nuw i8, ptr %26, i64 4
  store i32 1, ptr %26, align 4, !tbaa !4
  store i32 -184549320, ptr %29, align 4
  %30 = getelementptr inbounds nuw i8, ptr %26, i64 8
  store ptr @l_Lean_activateScoped___rarg___lambda__1, ptr %30, align 8, !tbaa !9
  %31 = getelementptr inbounds nuw i8, ptr %26, i64 16
  store i16 5, ptr %31, align 8, !tbaa !14
  %32 = getelementptr inbounds nuw i8, ptr %26, i64 18
  store i16 4, ptr %32, align 2, !tbaa !14
  %33 = getelementptr inbounds nuw i8, ptr %26, i64 24
  store ptr %0, ptr %33, align 8, !tbaa !9
  %34 = getelementptr inbounds nuw i8, ptr %26, i64 32
  store ptr %1, ptr %34, align 8, !tbaa !9
  %35 = getelementptr inbounds nuw i8, ptr %26, i64 40
  store ptr %3, ptr %35, align 8, !tbaa !9
  %36 = getelementptr inbounds nuw i8, ptr %26, i64 48
  store ptr %6, ptr %36, align 8, !tbaa !9
  %37 = tail call ptr @lean_apply_4(ptr noundef %6, ptr noundef nonnull inttoptr (i64 1 to ptr), ptr noundef nonnull inttoptr (i64 1 to ptr), ptr noundef %25, ptr noundef nonnull %26) #7
  ret ptr %37
}